; Function Attrs: mustprogress uwtable
define hidden void @_ZN1q14theory_checker6clauseEP3app(ptr dead_on_unwind noalias writable sret(%class.ref_vector) align 8 initializes((0, 16)) %0, ptr noundef nonnull readonly align 8 captures(none) dereferenceable(32) %1, ptr noundef readonly captures(address) %2) unnamed_addr #3 align 2 personality ptr @__gxx_personality_v0 {
  %4 = getelementptr inbounds nuw i8, ptr %1, i64 8
  %5 = load ptr, ptr %4, align 8, !tbaa !3
  %6 = ptrtoint ptr %5 to i64
  store i64 %6, ptr %0, align 8, !tbaa !12
  %7 = getelementptr inbounds nuw i8, ptr %0, i64 8
  store ptr null, ptr %7, align 8, !tbaa !13
  %8 = getelementptr inbounds nuw i8, ptr %2, i64 24
  %9 = load i32, ptr %8, align 8, !tbaa !17
  %10 = zext i32 %9 to i64
  %.idx = shl nuw nsw i64 %10, 3
  %11 = getelementptr inbounds nuw i8, ptr %2, i64 %.idx
  %.ptr14 = getelementptr inbounds nuw i8, ptr %11, i64 32
  %.not12 = icmp eq i32 %9, 0
  br i1 %.not12, label %._crit_edge, label %.lr.ph.preheader

.lr.ph.preheader:                                 ; preds = %3
  %.ptr = getelementptr inbounds nuw i8, ptr %2, i64 32
  br label %.lr.ph

.lr.ph:                                           ; preds = %.lr.ph.preheader, %41
  %.013 = phi ptr [ %42, %41 ], [ %.ptr, %.lr.ph.preheader ]
  %12 = load ptr, ptr %.013, align 8, !tbaa !24
  %13 = load ptr, ptr %4, align 8, !tbaa !3
  %14 = invoke noundef zeroext i1 @_ZNK11ast_manager7is_boolEPK4expr(ptr noundef nonnull align 8 dereferenceable(976) %13, ptr noundef %12)
          to label %15 unwind label %39

15:                                               ; preds = %.lr.ph
  br i1 %14, label %16, label %41

16:                                               ; preds = %15
  %17 = load ptr, ptr %4, align 8, !tbaa !3
  %18 = invoke noundef ptr @_Z6mk_notR11ast_managerP4expr(ptr noundef nonnull align 8 dereferenceable(976) %17, ptr noundef %12)
          to label %19 unwind label %39

19:                                               ; preds = %16
  %.not.i.i.i.i = icmp eq ptr %18, null
  br i1 %.not.i.i.i.i, label %_ZN15ref_vector_coreI4expr19ref_manager_wrapperIS0_11ast_managerEE7inc_refEPS0_.exit.i, label %20

20:                                               ; preds = %19
  %21 = getelementptr inbounds nuw i8, ptr %18, i64 8
  %22 = load i32, ptr %21, align 4, !tbaa !26
  %23 = add i32 %22, 1
  store i32 %23, ptr %21, align 4, !tbaa !26
  br label %_ZN15ref_vector_coreI4expr19ref_manager_wrapperIS0_11ast_managerEE7inc_refEPS0_.exit.i

_ZN15ref_vector_coreI4expr19ref_manager_wrapperIS0_11ast_managerEE7inc_refEPS0_.exit.i: ; preds = %20, %19
  %24 = load ptr, ptr %7, align 8, !tbaa !13
  %25 = icmp eq ptr %24, null
  br i1 %25, label %32, label %26

26:                                               ; preds = %_ZN15ref_vector_coreI4expr19ref_manager_wrapperIS0_11ast_managerEE7inc_refEPS0_.exit.i
  %27 = getelementptr inbounds i8, ptr %24, i64 -4
  %28 = load i32, ptr %27, align 4, !tbaa !27
  %29 = getelementptr inbounds i8, ptr %24, i64 -8
  %30 = load i32, ptr %29, align 4, !tbaa !27
  %31 = icmp eq i32 %28, %30
  br i1 %31, label %32, label %_ZN15ref_vector_coreI4expr19ref_manager_wrapperIS0_11ast_managerEE9push_backEPS0_.exit

32:                                               ; preds = %26, %_ZN15ref_vector_coreI4expr19ref_manager_wrapperIS0_11ast_managerEE7inc_refEPS0_.exit.i
  invoke void @_ZN6vectorIP4exprLb0EjE13expand_vectorEv(ptr noundef nonnull align 8 dereferenceable(8) %7)
          to label %.noexc unwind label %39

.noexc:                                           ; preds = %32
  %.pre.i.i = load ptr, ptr %7, align 8, !tbaa !13
  %.phi.trans.insert.i.i = getelementptr inbounds i8, ptr %.pre.i.i, i64 -4
  %.pre2.i.i = load i32, ptr %.phi.trans.insert.i.i, align 4, !tbaa !27
  br label %_ZN15ref_vector_coreI4expr19ref_manager_wrapperIS0_11ast_managerEE9push_backEPS0_.exit

_ZN15ref_vector_coreI4expr19ref_manager_wrapperIS0_11ast_managerEE9push_backEPS0_.exit: ; preds = %26, %.noexc
  %33 = phi i32 [ %.pre2.i.i, %.noexc ], [ %28, %26 ]
  %34 = phi ptr [ %.pre.i.i, %.noexc ], [ %24, %26 ]
  %35 = getelementptr inbounds i8, ptr %34, i64 -4
  %36 = zext i32 %33 to i64
  %37 = getelementptr inbounds nuw ptr, ptr %34, i64 %36
  store ptr %18, ptr %37, align 8, !tbaa !24
  %38 = add i32 %33, 1
  store i32 %38, ptr %35, align 4, !tbaa !27
  br label %41

39:                                               ; preds = %32, %16, %.lr.ph
  %40 = landingpad { ptr, i32 }
          cleanup
  tail call void @_ZN15ref_vector_coreI4expr19ref_manager_wrapperIS0_11ast_managerEED2Ev(ptr noundef nonnull align 8 dereferenceable(16) %0) #17
  resume { ptr, i32 } %40

41:                                               ; preds = %_ZN15ref_vector_coreI4expr19ref_manager_wrapperIS0_11ast_managerEE9push_backEPS0_.exit, %15
  %42 = getelementptr inbounds nuw i8, ptr %.013, i64 8
  %.not = icmp eq ptr %42, %.ptr14
  br i1 %.not, label %._crit_edge, label %.lr.ph

._crit_edge:                                      ; preds = %41, %3
  ret void
}